; ModuleID = '40/1656.c'
source_filename = "40/1656.c"
target datalayout = "e-m:e-p270:32:32-p271:32:32-p272:64:64-i64:64-f80:128-n8:16:32:64-S128"
target triple = "x86_64-pc-linux-gnu"

@.str = private unnamed_addr constant [16 x i8] c"%lf%lf%lf%lf%lf\00", align 1
@.str.1 = private unnamed_addr constant [14 x i8] c"Invalid input\00", align 1
@.str.2 = private unnamed_addr constant [6 x i8] c"%.4lf\00", align 1

; Function Attrs: noinline nounwind uwtable
define dso_local i32 @main() #0 {
  %1 = alloca i32, align 4
  %2 = alloca double, align 8
  %3 = alloca double, align 8
  %4 = alloca double, align 8
  %5 = alloca double, align 8
  %6 = alloca double, align 8
  %7 = alloca double, align 8
  %8 = alloca double, align 8
  %9 = alloca double, align 8
  store i32 0, i32* %1, align 4
  %10 = call i32 (i8*, ...) @__isoc99_scanf(i8* getelementptr inbounds ([16 x i8], [16 x i8]* @.str, i64 0, i64 0), double* %2, double* %3, double* %4, double* %5, double* %6)
  %11 = load double, double* %6, align 8
  %12 = fdiv double %11, 2.000000e+00
  store double %12, double* %7, align 8
  %13 = load double, double* %2, align 8
  %14 = load double, double* %3, align 8
  %15 = fadd double %13, %14
  %16 = load double, double* %4, align 8
  %17 = fadd double %15, %16
  %18 = load double, double* %5, align 8
  %19 = fadd double %17, %18
  %20 = fdiv double %19, 2.000000e+00
  store double %20, double* %9, align 8
  %21 = load double, double* %7, align 8
  %22 = fmul double 0x400921FB4D12D84A, %21
  %23 = fdiv double %22, 1.800000e+02
  store double %23, double* %8, align 8
  %24 = load double, double* %9, align 8
  %25 = load double, double* %2, align 8
  %26 = fsub double %24, %25
  %27 = load double, double* %9, align 8
  %28 = load double, double* %3, align 8
  %29 = fsub double %27, %28
  %30 = fmul double %26, %29
  %31 = load double, double* %9, align 8
  %32 = load double, double* %4, align 8
  %33 = fsub double %31, %32
  %34 = fmul double %30, %33
  %35 = load double, double* %9, align 8
  %36 = load double, double* %5, align 8
  %37 = fsub double %35, %36
  %38 = fmul double %34, %37
  %39 = load double, double* %2, align 8
  %40 = load double, double* %3, align 8
  %41 = fmul double %39, %40
  %42 = load double, double* %4, align 8
  %43 = fmul double %41, %42
  %44 = load double, double* %5, align 8
  %45 = fmul double %43, %44
  %46 = load double, double* %8, align 8
  %47 = call double @cos(double %46) #3
  %48 = fmul double %45, %47
  %49 = load double, double* %8, align 8
  %50 = call double @cos(double %49) #3
  %51 = fmul double %48, %50
  %52 = fsub double %38, %51
  %53 = fcmp olt double %52, 0.000000e+00
  br i1 %53, label %54, label %56

54:                                               ; preds = %0
  %55 = call i32 (i8*, ...) @printf(i8* getelementptr inbounds ([14 x i8], [14 x i8]* @.str.1, i64 0, i64 0))
  br label %121

56:                                               ; preds = %0
  %57 = load double, double* %9, align 8
  %58 = load double, double* %2, align 8
  %59 = fsub double %57, %58
  %60 = load double, double* %9, align 8
  %61 = load double, double* %3, align 8
  %62 = fsub double %60, %61
  %63 = fmul double %59, %62
  %64 = load double, double* %9, align 8
  %65 = load double, double* %4, align 8
  %66 = fsub double %64, %65
  %67 = fmul double %63, %66
  %68 = load double, double* %9, align 8
  %69 = load double, double* %5, align 8
  %70 = fsub double %68, %69
  %71 = fmul double %67, %70
  %72 = load double, double* %2, align 8
  %73 = load double, double* %3, align 8
  %74 = fmul double %72, %73
  %75 = load double, double* %4, align 8
  %76 = fmul double %74, %75
  %77 = load double, double* %5, align 8
  %78 = fmul double %76, %77
  %79 = load double, double* %8, align 8
  %80 = call double @cos(double %79) #3
  %81 = fmul double %78, %80
  %82 = load double, double* %8, align 8
  %83 = call double @cos(double %82) #3
  %84 = fmul double %81, %83
  %85 = fsub double %71, %84
  %86 = fcmp ogt double %85, 0.000000e+00
  br i1 %86, label %87, label %120

87:                                               ; preds = %56
  %88 = load double, double* %9, align 8
  %89 = load double, double* %2, align 8
  %90 = fsub double %88, %89
  %91 = load double, double* %9, align 8
  %92 = load double, double* %3, align 8
  %93 = fsub double %91, %92
  %94 = fmul double %90, %93
  %95 = load double, double* %9, align 8
  %96 = load double, double* %4, align 8
  %97 = fsub double %95, %96
  %98 = fmul double %94, %97
  %99 = load double, double* %9, align 8
  %100 = load double, double* %5, align 8
  %101 = fsub double %99, %100
  %102 = fmul double %98, %101
  %103 = load double, double* %2, align 8
  %104 = load double, double* %3, align 8
  %105 = fmul double %103, %104
  %106 = load double, double* %4, align 8
  %107 = fmul double %105, %106
  %108 = load double, double* %5, align 8
  %109 = fmul double %107, %108
  %110 = load double, double* %8, align 8
  %111 = call double @cos(double %110) #3
  %112 = fmul double %109, %111
  %113 = load double, double* %8, align 8
  %114 = call double @cos(double %113) #3
  %115 = fmul double %112, %114
  %116 = fsub double %102, %115
  %117 = call double @sqrt(double %116) #3
  store double %117, double* %9, align 8
  %118 = load double, double* %9, align 8
  %119 = call i32 (i8*, ...) @printf(i8* getelementptr inbounds ([6 x i8], [6 x i8]* @.str.2, i64 0, i64 0), double %118)
  br label %120

120:                                              ; preds = %87, %56
  br label %121

121:                                              ; preds = %120, %54
  ret i32 0
}

declare dso_local i32 @__isoc99_scanf(i8*, ...) #1

; Function Attrs: nounwind
declare dso_local double @cos(double) #2

declare dso_local i32 @printf(i8*, ...) #1

; Function Attrs: nounwind
declare dso_local double @sqrt(double) #2


!llvm.module.flags = !{!0}
!llvm.ident = !{!1}

!0 = !{i32 1, !"wchar_size", i32 4}
!1 = !{!"clang version 10.0.0-4ubuntu1 "}
